target datalayout = "e-m:e-p270:32:32-p271:32:32-p272:64:64-i64:64-i128:128-f80:128-n8:16:32:64-S128"
target triple = "x86_64-pc-linux-gnu"

%struct.magic_set = type { [2 x ptr], %struct.cont, %struct.out, i32, i32, i32, i32, i32, ptr, i64, i32, %struct.anon, %union.VALUETYPE, i16, i16, i16, i16, i16, i16, i64, i64, i64 }
%struct.cont = type { i64, ptr }
%struct.out = type { ptr, i64, ptr }
%struct.anon = type { ptr, i64, i64, i64 }
%union.VALUETYPE = type { [2 x i64], [112 x i8] }

@.str.5 = private unnamed_addr constant [27 x i8] c"Bad magic format `%s' (%s)\00", align 1
@.str.6 = private unnamed_addr constant [37 x i8] c"Output buffer space exceeded %zu+%zu\00", align 1
@.str.7 = private unnamed_addr constant [5 x i8] c"%s%s\00", align 1

; Function Attrs: nounwind uwtable
define internal void @file_clearbuf(ptr noundef %0) #0 {
  %2 = alloca ptr, align 8
  store ptr %0, ptr %2, align 8
  %3 = load ptr, ptr %2, align 8
  %4 = getelementptr inbounds %struct.magic_set, ptr %3, i32 0, i32 2
  %5 = getelementptr inbounds %struct.out, ptr %4, i32 0, i32 0
  %6 = load ptr, ptr %5, align 8
  call void @_efree(ptr noundef %6)
  %7 = load ptr, ptr %2, align 8
  %8 = getelementptr inbounds %struct.magic_set, ptr %7, i32 0, i32 2
  %9 = getelementptr inbounds %struct.out, ptr %8, i32 0, i32 0
  store ptr null, ptr %9, align 8
  %10 = load ptr, ptr %2, align 8
  %11 = getelementptr inbounds %struct.magic_set, ptr %10, i32 0, i32 2
  %12 = getelementptr inbounds %struct.out, ptr %11, i32 0, i32 1
  store i64 0, ptr %12, align 8
  ret void
}

; Function Attrs: nounwind uwtable
define hidden i32 @file_vprintf(ptr noundef %0, ptr noundef %1, ptr noundef %2) #0 {
  %4 = alloca i32, align 4
  %5 = alloca ptr, align 8
  %6 = alloca ptr, align 8
  %7 = alloca ptr, align 8
  %8 = alloca i64, align 8
  %9 = alloca ptr, align 8
  %10 = alloca ptr, align 8
  %11 = alloca [1024 x i8], align 16
  %12 = alloca i64, align 8
  store ptr %0, ptr %5, align 8
  store ptr %1, ptr %6, align 8
  store ptr %2, ptr %7, align 8
  %13 = load ptr, ptr %5, align 8
  %14 = getelementptr inbounds %struct.magic_set, ptr %13, i32 0, i32 7
  %15 = load i32, ptr %14, align 8
  %16 = and i32 %15, 1
  %17 = icmp ne i32 %16, 0
  br i1 %17, label %18, label %19

18:                                               ; preds = %3
  store i32 0, ptr %4, align 4
  br label %85

19:                                               ; preds = %3
  %20 = getelementptr inbounds [1024 x i8], ptr %11, i64 0, i64 0
  %21 = load ptr, ptr %6, align 8
  %22 = call i32 @file_checkfmt(ptr noundef %20, i64 noundef 1024, ptr noundef %21)
  %23 = icmp ne i32 %22, 0
  br i1 %23, label %24, label %29

24:                                               ; preds = %19
  %25 = load ptr, ptr %5, align 8
  call void @file_clearbuf(ptr noundef %25)
  %26 = load ptr, ptr %5, align 8
  %27 = load ptr, ptr %6, align 8
  %28 = getelementptr inbounds [1024 x i8], ptr %11, i64 0, i64 0
  call void (ptr, i32, ptr, ...) @file_error(ptr noundef %26, i32 noundef 0, ptr noundef @.str.5, ptr noundef %27, ptr noundef %28)
  store i32 -1, ptr %4, align 4
  br label %85

29:                                               ; preds = %19
  %30 = load ptr, ptr %6, align 8
  %31 = load ptr, ptr %7, align 8
  %32 = call i64 @zend_vspprintf(ptr noundef %9, i64 noundef 0, ptr noundef %30, ptr noundef %31)
  store i64 %32, ptr %8, align 8
  %33 = load i64, ptr %8, align 8
  %34 = icmp ugt i64 %33, 1024
  br i1 %34, label %43, label %35

35:                                               ; preds = %29
  %36 = load i64, ptr %8, align 8
  %37 = load ptr, ptr %5, align 8
  %38 = getelementptr inbounds %struct.magic_set, ptr %37, i32 0, i32 2
  %39 = getelementptr inbounds %struct.out, ptr %38, i32 0, i32 1
  %40 = load i64, ptr %39, align 8
  %41 = add i64 %36, %40
  %42 = icmp ugt i64 %41, 1048576
  br i1 %42, label %43, label %57

43:                                               ; preds = %35, %29
  %44 = load ptr, ptr %5, align 8
  %45 = getelementptr inbounds %struct.magic_set, ptr %44, i32 0, i32 2
  %46 = getelementptr inbounds %struct.out, ptr %45, i32 0, i32 1
  %47 = load i64, ptr %46, align 8
  store i64 %47, ptr %12, align 8
  %48 = load ptr, ptr %9, align 8
  %49 = icmp ne ptr %48, null
  br i1 %49, label %50, label %52

50:                                               ; preds = %43
  %51 = load ptr, ptr %9, align 8
  call void @_efree(ptr noundef %51)
  br label %52

52:                                               ; preds = %50, %43
  %53 = load ptr, ptr %5, align 8
  call void @file_clearbuf(ptr noundef %53)
  %54 = load ptr, ptr %5, align 8
  %55 = load i64, ptr %8, align 8
  %56 = load i64, ptr %12, align 8
  call void (ptr, i32, ptr, ...) @file_error(ptr noundef %54, i32 noundef 0, ptr noundef @.str.6, i64 noundef %55, i64 noundef %56)
  store i32 -1, ptr %4, align 4
  br label %85

57:                                               ; preds = %35
  %58 = load ptr, ptr %5, align 8
  %59 = getelementptr inbounds %struct.magic_set, ptr %58, i32 0, i32 2
  %60 = getelementptr inbounds %struct.out, ptr %59, i32 0, i32 0
  %61 = load ptr, ptr %60, align 8
  %62 = icmp ne ptr %61, null
  br i1 %62, label %63, label %76

63:                                               ; preds = %57
  %64 = load ptr, ptr %5, align 8
  %65 = getelementptr inbounds %struct.magic_set, ptr %64, i32 0, i32 2
  %66 = getelementptr inbounds %struct.out, ptr %65, i32 0, i32 0
  %67 = load ptr, ptr %66, align 8
  %68 = load ptr, ptr %9, align 8
  %69 = call i64 (ptr, i64, ptr, ...) @zend_spprintf(ptr noundef %10, i64 noundef 0, ptr noundef @.str.7, ptr noundef %67, ptr noundef %68)
  store i64 %69, ptr %8, align 8
  %70 = load ptr, ptr %9, align 8
  call void @_efree(ptr noundef %70)
  %71 = load ptr, ptr %5, align 8
  %72 = getelementptr inbounds %struct.magic_set, ptr %71, i32 0, i32 2
  %73 = getelementptr inbounds %struct.out, ptr %72, i32 0, i32 0
  %74 = load ptr, ptr %73, align 8
  call void @_efree(ptr noundef %74)
  %75 = load ptr, ptr %10, align 8
  store ptr %75, ptr %9, align 8
  br label %76

76:                                               ; preds = %63, %57
  %77 = load ptr, ptr %9, align 8
  %78 = load ptr, ptr %5, align 8
  %79 = getelementptr inbounds %struct.magic_set, ptr %78, i32 0, i32 2
  %80 = getelementptr inbounds %struct.out, ptr %79, i32 0, i32 0
  store ptr %77, ptr %80, align 8
  %81 = load i64, ptr %8, align 8
  %82 = load ptr, ptr %5, align 8
  %83 = getelementptr inbounds %struct.magic_set, ptr %82, i32 0, i32 2
  %84 = getelementptr inbounds %struct.out, ptr %83, i32 0, i32 1
  store i64 %81, ptr %84, align 8
  store i32 0, ptr %4, align 4
  br label %85

85:                                               ; preds = %76, %52, %24, %18
  %86 = load i32, ptr %4, align 4
  ret i32 %86
}