; Function Attrs: nounwind uwtable
define hidden noundef i32 @file_vprintf(ptr nocapture noundef %0, ptr noundef %1, ptr noundef %2) local_unnamed_addr #2 {
  %4 = alloca ptr, align 8
  %5 = alloca ptr, align 8
  %6 = alloca [1024 x i8], align 16
  %7 = getelementptr inbounds i8, ptr %0, i64 72
  %8 = load i32, ptr %7, align 8
  %9 = and i32 %8, 1
  %.not = icmp eq i32 %9, 0
  br i1 %.not, label %10, label %40

10:                                               ; preds = %3
  %11 = call i32 @file_checkfmt(ptr noundef nonnull %6, i64 noundef 1024, ptr noundef %1), !range !4
  %.not25 = icmp eq i32 %11, 0
  br i1 %.not25, label %15, label %12

12:                                               ; preds = %10
  %13 = getelementptr inbounds i8, ptr %0, i64 32
  %14 = load ptr, ptr %13, align 8
  call void @_efree(ptr noundef %14) #17
  call void @llvm.memset.p0.i64(ptr noundef nonnull align 8 dereferenceable(16) %13, i8 0, i64 16, i1 false)
  call void (ptr, i32, ptr, ...) @file_error(ptr noundef nonnull %0, i32 noundef 0, ptr noundef nonnull @.str.5, ptr noundef %1, ptr noundef nonnull %6)
  br label %40

15:                                               ; preds = %10
  %16 = call i64 @zend_vspprintf(ptr noundef nonnull %4, i64 noundef 0, ptr noundef %1, ptr noundef %2) #17
  %17 = icmp ugt i64 %16, 1024
  br i1 %17, label %._crit_edge, label %18

._crit_edge:                                      ; preds = %15
  %.phi.trans.insert = getelementptr inbounds i8, ptr %0, i64 40
  %.pre28 = load i64, ptr %.phi.trans.insert, align 8
  br label %24

18:                                               ; preds = %15
  %19 = getelementptr inbounds i8, ptr %0, i64 32
  %20 = getelementptr inbounds i8, ptr %0, i64 40
  %21 = load i64, ptr %20, align 8
  %22 = add i64 %21, %16
  %23 = icmp ugt i64 %22, 1048576
  br i1 %23, label %24, label %31

24:                                               ; preds = %._crit_edge, %18
  %25 = phi i64 [ %.pre28, %._crit_edge ], [ %21, %18 ]
  %26 = load ptr, ptr %4, align 8
  %.not27 = icmp eq ptr %26, null
  br i1 %.not27, label %28, label %27

27:                                               ; preds = %24
  call void @_efree(ptr noundef nonnull %26) #17
  br label %28

28:                                               ; preds = %27, %24
  %29 = getelementptr inbounds i8, ptr %0, i64 32
  %30 = load ptr, ptr %29, align 8
  call void @_efree(ptr noundef %30) #17
  call void @llvm.memset.p0.i64(ptr noundef nonnull align 8 dereferenceable(16) %29, i8 0, i64 16, i1 false)
  call void (ptr, i32, ptr, ...) @file_error(ptr noundef nonnull %0, i32 noundef 0, ptr noundef nonnull @.str.6, i64 noundef %16, i64 noundef %25)
  br label %40

31:                                               ; preds = %18
  %32 = load ptr, ptr %19, align 8
  %.not26 = icmp eq ptr %32, null
  %.pre = load ptr, ptr %4, align 8
  br i1 %.not26, label %38, label %33

33:                                               ; preds = %31
  %34 = call i64 (ptr, i64, ptr, ...) @zend_spprintf(ptr noundef nonnull %5, i64 noundef 0, ptr noundef nonnull @.str.7, ptr noundef nonnull %32, ptr noundef %.pre) #17
  %35 = load ptr, ptr %4, align 8
  call void @_efree(ptr noundef %35) #17
  %36 = load ptr, ptr %19, align 8
  call void @_efree(ptr noundef %36) #17
  %37 = load ptr, ptr %5, align 8
  br label %38

38:                                               ; preds = %33, %31
  %39 = phi ptr [ %37, %33 ], [ %.pre, %31 ]
  %.021 = phi i64 [ %34, %33 ], [ %16, %31 ]
  store ptr %39, ptr %19, align 8
  store i64 %.021, ptr %20, align 8
  br label %40

40:                                               ; preds = %3, %38, %28, %12
  %.0 = phi i32 [ -1, %12 ], [ -1, %28 ], [ 0, %38 ], [ 0, %3 ]
  ret i32 %.0
}